target datalayout = "e-m:e-p270:32:32-p271:32:32-p272:64:64-i64:64-i128:128-f80:128-n8:16:32:64-S128"
target triple = "x86_64-pc-linux-gnu"

%struct.packet_provider_data = type { ptr, ptr, ptr, ptr, ptr, ptr }
%struct._frame_data = type <{ i32, i32, i32, i32, i32, [4 x i8], i64, ptr, ptr, ptr, i8, i16, [5 x i8], %struct.nstime_t, %struct.nstime_t, i32, i32 }>
%struct.nstime_t = type { i64, i32 }

; Function Attrs: null_pointer_is_valid sspstrong uwtable
define hidden void @cap_file_provider_set_modified_block(ptr noundef %0, ptr noundef %1, ptr noundef %2) #0 {
  %4 = alloca ptr, align 8
  %5 = alloca ptr, align 8
  %6 = alloca ptr, align 8
  store ptr %0, ptr %4, align 8
  store ptr %1, ptr %5, align 8
  store ptr %2, ptr %6, align 8
  %7 = load ptr, ptr %4, align 8
  %8 = getelementptr inbounds nuw %struct.packet_provider_data, ptr %7, i32 0, i32 5
  %9 = load ptr, ptr %8, align 8
  %10 = icmp ne ptr %9, null
  br i1 %10, label %15, label %11

11:                                               ; preds = %3
  %12 = call ptr @g_tree_new_full(ptr noundef @frame_cmp, ptr noundef null, ptr noundef null, ptr noundef @wtap_block_unref)
  %13 = load ptr, ptr %4, align 8
  %14 = getelementptr inbounds nuw %struct.packet_provider_data, ptr %13, i32 0, i32 5
  store ptr %12, ptr %14, align 8
  br label %15

15:                                               ; preds = %11, %3
  %16 = load ptr, ptr %4, align 8
  %17 = getelementptr inbounds nuw %struct.packet_provider_data, ptr %16, i32 0, i32 5
  %18 = load ptr, ptr %17, align 8
  %19 = load ptr, ptr %5, align 8
  %20 = load ptr, ptr %6, align 8
  call void @g_tree_replace(ptr noundef %18, ptr noundef %19, ptr noundef %20)
  %21 = load ptr, ptr %5, align 8
  %22 = getelementptr inbounds nuw %struct._frame_data, ptr %21, i32 0, i32 11
  %23 = load i16, ptr %22, align 1
  %24 = and i16 %23, -257
  %25 = or i16 %24, 256
  store i16 %25, ptr %22, align 1
  ret void
}