; Function Attrs: null_pointer_is_valid sspstrong uwtable
define hidden void @cap_file_provider_set_modified_block(ptr noundef captures(none) %0, ptr noundef %1, ptr noundef %2) local_unnamed_addr #0 {
  %4 = getelementptr inbounds nuw i8, ptr %0, i64 40
  %5 = load ptr, ptr %4, align 8
  %.not = icmp eq ptr %5, null
  br i1 %.not, label %6, label %8

6:                                                ; preds = %3
  %7 = tail call ptr @g_tree_new_full(ptr noundef nonnull @frame_cmp, ptr noundef null, ptr noundef null, ptr noundef nonnull @wtap_block_unref)
  store ptr %7, ptr %4, align 8
  br label %8

8:                                                ; preds = %6, %3
  %9 = phi ptr [ %7, %6 ], [ %5, %3 ]
  tail call void @g_tree_replace(ptr noundef %9, ptr noundef %1, ptr noundef %2)
  %10 = getelementptr inbounds nuw i8, ptr %1, i64 57
  %11 = load i16, ptr %10, align 1
  %12 = or i16 %11, 256
  store i16 %12, ptr %10, align 1
  ret void
}